target datalayout = "e-m:e-p270:32:32-p271:32:32-p272:64:64-i64:64-i128:128-f80:128-n8:16:32:64-S128"
target triple = "x86_64-pc-linux-gnu"

%struct._lv_vector_draw_dsc_t = type { %struct._lv_vector_fill_dsc_t, %struct._lv_vector_stroke_dsc_t, %struct._lv_matrix_t, i32, %struct.lv_area_t }
%struct._lv_vector_fill_dsc_t = type { i32, %struct.lv_color32_t, i8, i32, %struct._lv_draw_image_dsc_t, %struct._lv_vector_gradient_t, %struct._lv_matrix_t }
%struct.lv_color32_t = type { i8, i8, i8, i8 }
%struct._lv_draw_image_dsc_t = type { %struct.lv_draw_dsc_base_t, ptr, %struct.lv_image_header_t, i32, i32, i32, i32, i32, %struct.lv_point_t, %struct.lv_color_t, i8, i8, i8, ptr, %struct.lv_area_t, i32, ptr }
%struct.lv_draw_dsc_base_t = type { ptr, i32, i32, i32, ptr, i64, ptr }
%struct.lv_image_header_t = type <{ i64, i32 }>
%struct.lv_point_t = type { i32, i32 }
%struct.lv_color_t = type { i8, i8, i8 }
%struct._lv_vector_gradient_t = type { i32, [2 x %struct.lv_gradient_stop_t], i16, float, float, float, float, float, float, float, i32 }
%struct.lv_gradient_stop_t = type { %struct.lv_color_t, i8, i8 }
%struct._lv_vector_stroke_dsc_t = type { i32, %struct.lv_color32_t, i8, float, %struct._lv_array_t, i32, i32, i16, %struct._lv_vector_gradient_t, %struct._lv_matrix_t }
%struct._lv_array_t = type { ptr, i32, i32, i32, i8 }
%struct._lv_matrix_t = type { [3 x [3 x float]] }
%struct.lv_area_t = type { i32, i32, i32, i32 }
%struct._lv_svg_render_obj = type { ptr, i32, ptr, %struct._lv_vector_draw_dsc_t, %struct._lv_matrix_t, ptr, ptr, ptr, ptr, ptr, ptr, ptr, ptr, ptr }
%struct.lv_svg_node_t = type { %struct._lv_tree_node_t, ptr, i8, %struct._lv_array_t, ptr }
%struct._lv_tree_node_t = type { ptr, ptr, i32, i32, ptr }
%struct.lv_svg_render_text_t = type { %struct._lv_svg_render_obj, %struct._lv_array_t, ptr, float, i32, ptr, float, float, ptr, %struct.lv_area_t }
%struct._lv_svg_render_content = type { %struct._lv_svg_render_obj, ptr, ptr, i32 }
%struct.lv_svg_render_tspan_t = type { %struct._lv_svg_render_content, ptr, float, i32, ptr, ptr, %struct.lv_area_t }

@lv_text_get_encoded_length = external constant ptr, align 8
@lv_text_encoded_next = external constant ptr, align 8

; Function Attrs: nounwind uwtable
define internal void @_init_content(ptr noundef %0, ptr noundef %1) #0 {
  %3 = alloca ptr, align 8
  %4 = alloca ptr, align 8
  %5 = alloca ptr, align 8
  %6 = alloca ptr, align 8
  %7 = alloca i32, align 4
  %8 = alloca i32, align 4
  store ptr %0, ptr %3, align 8, !tbaa !3
  store ptr %1, ptr %4, align 8, !tbaa !3
  %9 = load ptr, ptr %3, align 8, !tbaa !3
  %10 = load ptr, ptr %4, align 8, !tbaa !3
  call void @_init_obj(ptr noundef %9, ptr noundef %10)
  call void @llvm.lifetime.start.p0(i64 8, ptr %5) #8
  %11 = load ptr, ptr %3, align 8, !tbaa !3
  store ptr %11, ptr %5, align 8, !tbaa !3
  call void @llvm.lifetime.start.p0(i64 8, ptr %6) #8
  %12 = load ptr, ptr %4, align 8, !tbaa !3
  %13 = getelementptr inbounds nuw %struct.lv_svg_node_t, ptr %12, i32 0, i32 1
  %14 = load ptr, ptr %13, align 8, !tbaa !160
  store ptr %14, ptr %6, align 8, !tbaa !3
  %15 = load ptr, ptr @lv_text_get_encoded_length, align 8, !tbaa !3
  %16 = load ptr, ptr %6, align 8, !tbaa !3
  %17 = call i32 %15(ptr noundef %16)
  %18 = load ptr, ptr %5, align 8, !tbaa !3
  %19 = getelementptr inbounds nuw %struct._lv_svg_render_content, ptr %18, i32 0, i32 3
  store i32 %17, ptr %19, align 8, !tbaa !202
  %20 = load ptr, ptr %5, align 8, !tbaa !3
  %21 = getelementptr inbounds nuw %struct._lv_svg_render_content, ptr %20, i32 0, i32 3
  %22 = load i32, ptr %21, align 8, !tbaa !202
  %23 = zext i32 %22 to i64
  %24 = mul i64 4, %23
  %25 = call ptr @lv_malloc(i64 noundef %24)
  %26 = load ptr, ptr %5, align 8, !tbaa !3
  %27 = getelementptr inbounds nuw %struct._lv_svg_render_content, ptr %26, i32 0, i32 2
  store ptr %25, ptr %27, align 8, !tbaa !203
  br label %28

28:                                               ; preds = %2
  %29 = load ptr, ptr %5, align 8, !tbaa !3
  %30 = getelementptr inbounds nuw %struct._lv_svg_render_content, ptr %29, i32 0, i32 2
  %31 = load ptr, ptr %30, align 8, !tbaa !203
  %32 = icmp ne ptr %31, null
  br i1 %32, label %39, label %33

33:                                               ; preds = %28
  br label %34

34:                                               ; preds = %33
  br label %35

35:                                               ; preds = %34
  br label %36

36:                                               ; preds = %35
  br label %37

37:                                               ; preds = %38, %36
  br label %38

38:                                               ; preds = %37
  br label %37

39:                                               ; preds = %28
  br label %40

40:                                               ; preds = %39
  br label %41

41:                                               ; preds = %40
  call void @llvm.lifetime.start.p0(i64 4, ptr %7) #8
  store i32 0, ptr %7, align 4, !tbaa !8
  call void @llvm.lifetime.start.p0(i64 4, ptr %8) #8
  store i32 0, ptr %8, align 4, !tbaa !8
  br label %42

42:                                               ; preds = %59, %41
  %43 = load i32, ptr %8, align 4, !tbaa !8
  %44 = load ptr, ptr %5, align 8, !tbaa !3
  %45 = getelementptr inbounds nuw %struct._lv_svg_render_content, ptr %44, i32 0, i32 3
  %46 = load i32, ptr %45, align 8, !tbaa !202
  %47 = icmp ult i32 %43, %46
  br i1 %47, label %49, label %48

48:                                               ; preds = %42
  call void @llvm.lifetime.end.p0(i64 4, ptr %8) #8
  br label %62

49:                                               ; preds = %42
  %50 = load ptr, ptr @lv_text_encoded_next, align 8, !tbaa !3
  %51 = load ptr, ptr %6, align 8, !tbaa !3
  %52 = call i32 %50(ptr noundef %51, ptr noundef %7)
  %53 = load ptr, ptr %5, align 8, !tbaa !3
  %54 = getelementptr inbounds nuw %struct._lv_svg_render_content, ptr %53, i32 0, i32 2
  %55 = load ptr, ptr %54, align 8, !tbaa !203
  %56 = load i32, ptr %8, align 4, !tbaa !8
  %57 = zext i32 %56 to i64
  %58 = getelementptr inbounds nuw i32, ptr %55, i64 %57
  store i32 %52, ptr %58, align 4, !tbaa !8
  br label %59

59:                                               ; preds = %49
  %60 = load i32, ptr %8, align 4, !tbaa !8
  %61 = add i32 %60, 1
  store i32 %61, ptr %8, align 4, !tbaa !8
  br label %42, !llvm.loop !220

62:                                               ; preds = %48
  call void @llvm.lifetime.end.p0(i64 4, ptr %7) #8
  call void @llvm.lifetime.end.p0(i64 8, ptr %6) #8
  call void @llvm.lifetime.end.p0(i64 8, ptr %5) #8
  ret void
}

; Function Attrs: nounwind uwtable
define internal void @_init_obj(ptr noundef %0, ptr noundef %1) #0 {
  %3 = alloca ptr, align 8
  %4 = alloca ptr, align 8
  store ptr %0, ptr %3, align 8, !tbaa !3
  store ptr %1, ptr %4, align 8, !tbaa !3
  %5 = load ptr, ptr %3, align 8, !tbaa !3
  %6 = getelementptr inbounds nuw %struct._lv_svg_render_obj, ptr %5, i32 0, i32 4
  call void @lv_matrix_identity(ptr noundef %6)
  ret void
}

; Function Attrs: nounwind uwtable
define internal void @_init_tspan(ptr noundef %0, ptr noundef %1) #0 {
  %3 = alloca ptr, align 8
  %4 = alloca ptr, align 8
  %5 = alloca ptr, align 8
  %6 = alloca ptr, align 8
  %7 = alloca i32, align 4
  %8 = alloca ptr, align 8
  %9 = alloca ptr, align 8
  store ptr %0, ptr %3, align 8, !tbaa !3
  store ptr %1, ptr %4, align 8, !tbaa !3
  %10 = load ptr, ptr %3, align 8, !tbaa !3
  %11 = load ptr, ptr %4, align 8, !tbaa !3
  call void @_init_obj(ptr noundef %10, ptr noundef %11)
  call void @llvm.lifetime.start.p0(i64 8, ptr %5) #8
  %12 = load ptr, ptr %3, align 8, !tbaa !3
  store ptr %12, ptr %5, align 8, !tbaa !3
  call void @llvm.lifetime.start.p0(i64 8, ptr %6) #8
  %13 = load ptr, ptr %4, align 8, !tbaa !3
  %14 = getelementptr inbounds nuw %struct._lv_tree_node_t, ptr %13, i32 0, i32 0
  %15 = load ptr, ptr %14, align 8, !tbaa !58
  store ptr %15, ptr %6, align 8, !tbaa !3
  %16 = load ptr, ptr %6, align 8, !tbaa !3
  %17 = getelementptr inbounds nuw %struct.lv_svg_node_t, ptr %16, i32 0, i32 2
  %18 = load i8, ptr %17, align 8, !tbaa !57
  %19 = sext i8 %18 to i32
  %20 = icmp ne i32 %19, 23
  br i1 %20, label %21, label %22

21:                                               ; preds = %2
  store i32 1, ptr %7, align 4
  br label %52

22:                                               ; preds = %2
  call void @llvm.lifetime.start.p0(i64 8, ptr %8) #8
  %23 = load ptr, ptr %6, align 8, !tbaa !3
  %24 = getelementptr inbounds nuw %struct.lv_svg_node_t, ptr %23, i32 0, i32 4
  %25 = load ptr, ptr %24, align 8, !tbaa !54
  store ptr %25, ptr %8, align 8, !tbaa !3
  %26 = load ptr, ptr %8, align 8, !tbaa !3
  %27 = getelementptr inbounds nuw %struct.lv_svg_render_text_t, ptr %26, i32 0, i32 2
  %28 = load ptr, ptr %27, align 8, !tbaa !193
  %29 = call ptr @lv_strdup(ptr noundef %28)
  %30 = load ptr, ptr %5, align 8, !tbaa !3
  %31 = getelementptr inbounds nuw %struct.lv_svg_render_tspan_t, ptr %30, i32 0, i32 1
  store ptr %29, ptr %31, align 8, !tbaa !215
  %32 = load ptr, ptr %8, align 8, !tbaa !3
  %33 = getelementptr inbounds nuw %struct.lv_svg_render_text_t, ptr %32, i32 0, i32 3
  %34 = load float, ptr %33, align 8, !tbaa !194
  %35 = load ptr, ptr %5, align 8, !tbaa !3
  %36 = getelementptr inbounds nuw %struct.lv_svg_render_tspan_t, ptr %35, i32 0, i32 2
  store float %34, ptr %36, align 8, !tbaa !216
  %37 = load ptr, ptr %8, align 8, !tbaa !3
  %38 = getelementptr inbounds nuw %struct.lv_svg_render_text_t, ptr %37, i32 0, i32 4
  %39 = load i32, ptr %38, align 4, !tbaa !195
  %40 = load ptr, ptr %5, align 8, !tbaa !3
  %41 = getelementptr inbounds nuw %struct.lv_svg_render_tspan_t, ptr %40, i32 0, i32 3
  store i32 %39, ptr %41, align 4, !tbaa !217
  %42 = call ptr @lv_vector_path_create(i32 noundef 0)
  %43 = load ptr, ptr %5, align 8, !tbaa !3
  %44 = getelementptr inbounds nuw %struct.lv_svg_render_tspan_t, ptr %43, i32 0, i32 5
  store ptr %42, ptr %44, align 8, !tbaa !218
  call void @llvm.lifetime.start.p0(i64 8, ptr %9) #8
  %45 = load ptr, ptr %4, align 8, !tbaa !3
  %46 = getelementptr inbounds nuw %struct._lv_tree_node_t, ptr %45, i32 0, i32 1
  %47 = load ptr, ptr %46, align 8, !tbaa !62
  %48 = getelementptr inbounds ptr, ptr %47, i64 0
  %49 = load ptr, ptr %48, align 8, !tbaa !3
  store ptr %49, ptr %9, align 8, !tbaa !3
  %50 = load ptr, ptr %3, align 8, !tbaa !3
  %51 = load ptr, ptr %9, align 8, !tbaa !3
  call void @_init_content(ptr noundef %50, ptr noundef %51)
  call void @llvm.lifetime.end.p0(i64 8, ptr %9) #8
  call void @llvm.lifetime.end.p0(i64 8, ptr %8) #8
  store i32 0, ptr %7, align 4
  br label %52

52:                                               ; preds = %22, %21
  call void @llvm.lifetime.end.p0(i64 8, ptr %6) #8
  call void @llvm.lifetime.end.p0(i64 8, ptr %5) #8
  %53 = load i32, ptr %7, align 4
  switch i32 %53, label %55 [
    i32 0, label %54
    i32 1, label %54
  ]

54:                                               ; preds = %52, %52
  ret void

55:                                               ; preds = %52
  unreachable
}