; Function Attrs: nounwind uwtable
define internal void @_init_tspan(ptr noundef %0, ptr nocapture noundef readonly %1) #0 {
  %3 = alloca i32, align 4
  %4 = getelementptr inbounds nuw i8, ptr %0, i64 464
  tail call void @lv_matrix_identity(ptr noundef nonnull %4) #9
  %5 = load ptr, ptr %1, align 8, !tbaa !146
  %6 = getelementptr inbounds nuw i8, ptr %5, i64 40
  %7 = load i8, ptr %6, align 8, !tbaa !57
  %.not = icmp eq i8 %7, 23
  br i1 %.not, label %8, label %45

8:                                                ; preds = %2
  %9 = getelementptr inbounds nuw i8, ptr %5, i64 72
  %10 = load ptr, ptr %9, align 8, !tbaa !137
  %11 = getelementptr inbounds nuw i8, ptr %10, i64 600
  %12 = load ptr, ptr %11, align 8, !tbaa !198
  %13 = tail call ptr @lv_strdup(ptr noundef %12) #9
  %14 = getelementptr inbounds nuw i8, ptr %0, i64 600
  store ptr %13, ptr %14, align 8, !tbaa !219
  %15 = getelementptr inbounds nuw i8, ptr %10, i64 608
  %16 = load float, ptr %15, align 8, !tbaa !199
  %17 = getelementptr inbounds nuw i8, ptr %0, i64 608
  store float %16, ptr %17, align 8, !tbaa !220
  %18 = getelementptr inbounds nuw i8, ptr %10, i64 612
  %19 = load i32, ptr %18, align 4, !tbaa !202
  %20 = getelementptr inbounds nuw i8, ptr %0, i64 612
  store i32 %19, ptr %20, align 4, !tbaa !221
  %21 = tail call ptr @lv_vector_path_create(i32 noundef 0) #9
  %22 = getelementptr inbounds nuw i8, ptr %0, i64 624
  store ptr %21, ptr %22, align 8, !tbaa !222
  %23 = getelementptr inbounds nuw i8, ptr %1, i64 8
  %24 = load ptr, ptr %23, align 8, !tbaa !149
  %25 = load ptr, ptr %24, align 8, !tbaa !4
  tail call void @lv_matrix_identity(ptr noundef nonnull %4) #9
  %26 = getelementptr inbounds nuw i8, ptr %25, i64 32
  %27 = load ptr, ptr %26, align 8, !tbaa !120
  %28 = load ptr, ptr @lv_text_get_encoded_length, align 8, !tbaa !4
  %29 = tail call i32 %28(ptr noundef %27) #9
  %30 = getelementptr inbounds nuw i8, ptr %0, i64 592
  store i32 %29, ptr %30, align 8, !tbaa !207
  %31 = zext i32 %29 to i64
  %32 = shl nuw nsw i64 %31, 2
  %33 = tail call ptr @lv_malloc(i64 noundef %32) #9
  %34 = getelementptr inbounds nuw i8, ptr %0, i64 584
  store ptr %33, ptr %34, align 8, !tbaa !208
  %.not.i = icmp eq ptr %33, null
  br i1 %.not.i, label %.preheader.i, label %35

.preheader.i:                                     ; preds = %8, %.preheader.i
  br label %.preheader.i

35:                                               ; preds = %8
  call void @llvm.lifetime.start.p0(i64 4, ptr nonnull %3) #9
  store i32 0, ptr %3, align 4, !tbaa !209
  %36 = load i32, ptr %30, align 8, !tbaa !207
  %.not15.i = icmp eq i32 %36, 0
  br i1 %.not15.i, label %_init_content.exit, label %.lr.ph.i

.lr.ph.i:                                         ; preds = %35
  %37 = load ptr, ptr @lv_text_encoded_next, align 8, !tbaa !4
  br label %38

38:                                               ; preds = %38, %.lr.ph.i
  %indvars.iv.i = phi i64 [ 0, %.lr.ph.i ], [ %indvars.iv.next.i, %38 ]
  %39 = call i32 %37(ptr noundef %27, ptr noundef nonnull %3) #9
  %40 = load ptr, ptr %34, align 8, !tbaa !208
  %41 = getelementptr inbounds nuw i32, ptr %40, i64 %indvars.iv.i
  store i32 %39, ptr %41, align 4, !tbaa !209
  %indvars.iv.next.i = add nuw nsw i64 %indvars.iv.i, 1
  %42 = load i32, ptr %30, align 8, !tbaa !207
  %43 = zext i32 %42 to i64
  %44 = icmp samesign ult i64 %indvars.iv.next.i, %43
  br i1 %44, label %38, label %_init_content.exit, !llvm.loop !224

_init_content.exit:                               ; preds = %38, %35
  call void @llvm.lifetime.end.p0(i64 4, ptr nonnull %3) #9
  br label %45

45:                                               ; preds = %2, %_init_content.exit
  ret void
}